; Function Attrs: mustprogress uwtable
define noundef nonnull align 8 dereferenceable(8) ptr @_ZN7mitsubalsERNSt3__113basic_ostreamIcNS0_11char_traitsIcEEEERKNS_13TransportModeE(ptr noundef nonnull returned align 8 dereferenceable(8) %0, ptr nocapture noundef nonnull readonly align 4 dereferenceable(4) %1) local_unnamed_addr #0 personality ptr @__gxx_personality_v0 {
  %3 = load i32, ptr %1, align 4
  switch i32 %3, label %8 [
    i32 0, label %4
    i32 1, label %6
  ]

4:                                                ; preds = %2
  %5 = tail call noundef nonnull align 8 dereferenceable(8) ptr @_ZNSt3__124__put_character_sequenceB8ne190000IcNS_11char_traitsIcEEEERNS_13basic_ostreamIT_T0_EES7_PKS4_m(ptr noundef nonnull align 8 dereferenceable(8) %0, ptr noundef nonnull @.str.12, i64 noundef 8)
  br label %10

6:                                                ; preds = %2
  %7 = tail call noundef nonnull align 8 dereferenceable(8) ptr @_ZNSt3__124__put_character_sequenceB8ne190000IcNS_11char_traitsIcEEEERNS_13basic_ostreamIT_T0_EES7_PKS4_m(ptr noundef nonnull align 8 dereferenceable(8) %0, ptr noundef nonnull @.str.13, i64 noundef 10)
  br label %10

8:                                                ; preds = %2
  %9 = tail call noundef nonnull align 8 dereferenceable(8) ptr @_ZNSt3__124__put_character_sequenceB8ne190000IcNS_11char_traitsIcEEEERNS_13basic_ostreamIT_T0_EES7_PKS4_m(ptr noundef nonnull align 8 dereferenceable(8) %0, ptr noundef nonnull @.str.14, i64 noundef 7)
  br label %10

10:                                               ; preds = %8, %6, %4
  ret ptr %0
}